target datalayout = "e-m:e-p270:32:32-p271:32:32-p272:64:64-i64:64-f80:128-n8:16:32:64-S128"
target triple = "x86_64-pc-linux-gnu"

@.str = private unnamed_addr constant [4 x i8] c"%d\0A\00", align 1
@.str.1 = private unnamed_addr constant [3 x i8] c"NO\00", align 1

; Function Attrs: noinline nounwind uwtable
define dso_local void @main() #0 {
  %1 = alloca [1000 x [1000 x i8]], align 16
  %2 = alloca [1000 x i8], align 16
  %3 = alloca [1000 x i8], align 16
  %4 = alloca [1000 x i32], align 16
  %5 = alloca i32, align 4
  %6 = alloca i32, align 4
  %7 = alloca i32, align 4
  %8 = alloca i32, align 4
  %9 = alloca i32, align 4
  %10 = alloca i32, align 4
  %11 = alloca i32, align 4
  %12 = alloca i32, align 4
  %13 = alloca i32, align 4
  %14 = call i32 (i8*, ...) @__isoc99_scanf(i8* getelementptr inbounds ([4 x i8], [4 x i8]* @.str, i64 0, i64 0), i32* %8)
  %15 = getelementptr inbounds [1000 x i8], [1000 x i8]* %3, i64 0, i64 0
  %16 = call i32 (i8*, ...) bitcast (i32 (...)* @gets to i32 (i8*, ...)*)(i8* %15)
  %17 = getelementptr inbounds [1000 x i8], [1000 x i8]* %3, i64 0, i64 0
  %18 = call i64 @strlen(i8* %17) #3
  %19 = trunc i64 %18 to i32
  store i32 %19, i32* %7, align 4
  store i32 0, i32* %9, align 4
  store i32 0, i32* %5, align 4
  br label %20

20:                                               ; preds = %143, %0
  %21 = load i32, i32* %5, align 4
  %22 = load i32, i32* %7, align 4
  %23 = load i32, i32* %8, align 4
  %24 = sub nsw i32 %22, %23
  %25 = add nsw i32 %24, 1
  %26 = icmp slt i32 %21, %25
  br i1 %26, label %27, label %146

27:                                               ; preds = %20
  store i32 0, i32* %6, align 4
  br label %28

28:                                               ; preds = %35, %27
  %29 = load i32, i32* %6, align 4
  %30 = icmp slt i32 %29, 1000
  br i1 %30, label %31, label %38

31:                                               ; preds = %28
  %32 = load i32, i32* %6, align 4
  %33 = sext i32 %32 to i64
  %34 = getelementptr inbounds [1000 x i8], [1000 x i8]* %2, i64 0, i64 %33
  store i8 0, i8* %34, align 1
  br label %35

35:                                               ; preds = %31
  %36 = load i32, i32* %6, align 4
  %37 = add nsw i32 %36, 1
  store i32 %37, i32* %6, align 4
  br label %28

38:                                               ; preds = %28
  store i32 0, i32* %6, align 4
  br label %39

39:                                               ; preds = %53, %38
  %40 = load i32, i32* %6, align 4
  %41 = load i32, i32* %8, align 4
  %42 = icmp slt i32 %40, %41
  br i1 %42, label %43, label %56

43:                                               ; preds = %39
  %44 = load i32, i32* %5, align 4
  %45 = load i32, i32* %6, align 4
  %46 = add nsw i32 %44, %45
  %47 = sext i32 %46 to i64
  %48 = getelementptr inbounds [1000 x i8], [1000 x i8]* %3, i64 0, i64 %47
  %49 = load i8, i8* %48, align 1
  %50 = load i32, i32* %6, align 4
  %51 = sext i32 %50 to i64
  %52 = getelementptr inbounds [1000 x i8], [1000 x i8]* %2, i64 0, i64 %51
  store i8 %49, i8* %52, align 1
  br label %53

53:                                               ; preds = %43
  %54 = load i32, i32* %6, align 4
  %55 = add nsw i32 %54, 1
  store i32 %55, i32* %6, align 4
  br label %39

56:                                               ; preds = %39
  store i32 0, i32* %10, align 4
  store i32 1, i32* %6, align 4
  br label %57

57:                                               ; preds = %96, %56
  %58 = load i32, i32* %6, align 4
  %59 = load i32, i32* %9, align 4
  %60 = icmp sle i32 %58, %59
  br i1 %60, label %61, label %99

61:                                               ; preds = %57
  store i32 0, i32* %12, align 4
  store i32 0, i32* %13, align 4
  br label %62

62:                                               ; preds = %83, %61
  %63 = load i32, i32* %13, align 4
  %64 = load i32, i32* %8, align 4
  %65 = icmp slt i32 %63, %64
  br i1 %65, label %66, label %86

66:                                               ; preds = %62
  %67 = load i32, i32* %13, align 4
  %68 = sext i32 %67 to i64
  %69 = getelementptr inbounds [1000 x i8], [1000 x i8]* %2, i64 0, i64 %68
  %70 = load i8, i8* %69, align 1
  %71 = sext i8 %70 to i32
  %72 = load i32, i32* %6, align 4
  %73 = sext i32 %72 to i64
  %74 = getelementptr inbounds [1000 x [1000 x i8]], [1000 x [1000 x i8]]* %1, i64 0, i64 %73
  %75 = load i32, i32* %13, align 4
  %76 = sext i32 %75 to i64
  %77 = getelementptr inbounds [1000 x i8], [1000 x i8]* %74, i64 0, i64 %76
  %78 = load i8, i8* %77, align 1
  %79 = sext i8 %78 to i32
  %80 = icmp ne i32 %71, %79
  br i1 %80, label %81, label %82

81:                                               ; preds = %66
  store i32 1, i32* %12, align 4
  br label %82

82:                                               ; preds = %81, %66
  br label %83

83:                                               ; preds = %82
  %84 = load i32, i32* %13, align 4
  %85 = add nsw i32 %84, 1
  store i32 %85, i32* %13, align 4
  br label %62

86:                                               ; preds = %62
  %87 = load i32, i32* %12, align 4
  %88 = icmp eq i32 %87, 0
  br i1 %88, label %89, label %95

89:                                               ; preds = %86
  store i32 1, i32* %10, align 4
  %90 = load i32, i32* %6, align 4
  %91 = sext i32 %90 to i64
  %92 = getelementptr inbounds [1000 x i32], [1000 x i32]* %4, i64 0, i64 %91
  %93 = load i32, i32* %92, align 4
  %94 = add nsw i32 %93, 1
  store i32 %94, i32* %92, align 4
  br label %95

95:                                               ; preds = %89, %86
  br label %96

96:                                               ; preds = %95
  %97 = load i32, i32* %6, align 4
  %98 = add nsw i32 %97, 1
  store i32 %98, i32* %6, align 4
  br label %57

99:                                               ; preds = %57
  %100 = load i32, i32* %10, align 4
  %101 = icmp eq i32 %100, 0
  br i1 %101, label %102, label %142

102:                                              ; preds = %99
  %103 = load i32, i32* %9, align 4
  %104 = add nsw i32 %103, 1
  store i32 %104, i32* %9, align 4
  store i32 0, i32* %6, align 4
  br label %105

105:                                              ; preds = %120, %102
  %106 = load i32, i32* %6, align 4
  %107 = load i32, i32* %8, align 4
  %108 = icmp slt i32 %106, %107
  br i1 %108, label %109, label %123

109:                                              ; preds = %105
  %110 = load i32, i32* %6, align 4
  %111 = sext i32 %110 to i64
  %112 = getelementptr inbounds [1000 x i8], [1000 x i8]* %2, i64 0, i64 %111
  %113 = load i8, i8* %112, align 1
  %114 = load i32, i32* %9, align 4
  %115 = sext i32 %114 to i64
  %116 = getelementptr inbounds [1000 x [1000 x i8]], [1000 x [1000 x i8]]* %1, i64 0, i64 %115
  %117 = load i32, i32* %6, align 4
  %118 = sext i32 %117 to i64
  %119 = getelementptr inbounds [1000 x i8], [1000 x i8]* %116, i64 0, i64 %118
  store i8 %113, i8* %119, align 1
  br label %120

120:                                              ; preds = %109
  %121 = load i32, i32* %6, align 4
  %122 = add nsw i32 %121, 1
  store i32 %122, i32* %6, align 4
  br label %105

123:                                              ; preds = %105
  %124 = load i32, i32* %8, align 4
  store i32 %124, i32* %6, align 4
  br label %125

125:                                              ; preds = %135, %123
  %126 = load i32, i32* %6, align 4
  %127 = icmp slt i32 %126, 1000
  br i1 %127, label %128, label %138

128:                                              ; preds = %125
  %129 = load i32, i32* %9, align 4
  %130 = sext i32 %129 to i64
  %131 = getelementptr inbounds [1000 x [1000 x i8]], [1000 x [1000 x i8]]* %1, i64 0, i64 %130
  %132 = load i32, i32* %6, align 4
  %133 = sext i32 %132 to i64
  %134 = getelementptr inbounds [1000 x i8], [1000 x i8]* %131, i64 0, i64 %133
  store i8 0, i8* %134, align 1
  br label %135

135:                                              ; preds = %128
  %136 = load i32, i32* %6, align 4
  %137 = add nsw i32 %136, 1
  store i32 %137, i32* %6, align 4
  br label %125

138:                                              ; preds = %125
  %139 = load i32, i32* %9, align 4
  %140 = sext i32 %139 to i64
  %141 = getelementptr inbounds [1000 x i32], [1000 x i32]* %4, i64 0, i64 %140
  store i32 1, i32* %141, align 4
  br label %142

142:                                              ; preds = %138, %99
  br label %143

143:                                              ; preds = %142
  %144 = load i32, i32* %5, align 4
  %145 = add nsw i32 %144, 1
  store i32 %145, i32* %5, align 4
  br label %20

146:                                              ; preds = %20
  store i32 0, i32* %11, align 4
  store i32 1, i32* %5, align 4
  br label %147

147:                                              ; preds = %164, %146
  %148 = load i32, i32* %5, align 4
  %149 = load i32, i32* %9, align 4
  %150 = icmp sle i32 %148, %149
  br i1 %150, label %151, label %167

151:                                              ; preds = %147
  %152 = load i32, i32* %5, align 4
  %153 = sext i32 %152 to i64
  %154 = getelementptr inbounds [1000 x i32], [1000 x i32]* %4, i64 0, i64 %153
  %155 = load i32, i32* %154, align 4
  %156 = load i32, i32* %11, align 4
  %157 = icmp sgt i32 %155, %156
  br i1 %157, label %158, label %163

158:                                              ; preds = %151
  %159 = load i32, i32* %5, align 4
  %160 = sext i32 %159 to i64
  %161 = getelementptr inbounds [1000 x i32], [1000 x i32]* %4, i64 0, i64 %160
  %162 = load i32, i32* %161, align 4
  store i32 %162, i32* %11, align 4
  br label %163

163:                                              ; preds = %158, %151
  br label %164

164:                                              ; preds = %163
  %165 = load i32, i32* %5, align 4
  %166 = add nsw i32 %165, 1
  store i32 %166, i32* %5, align 4
  br label %147

167:                                              ; preds = %147
  %168 = load i32, i32* %11, align 4
  %169 = icmp eq i32 %168, 1
  br i1 %169, label %170, label %172

170:                                              ; preds = %167
  %171 = call i32 (i8*, ...) @printf(i8* getelementptr inbounds ([3 x i8], [3 x i8]* @.str.1, i64 0, i64 0))
  br label %197

172:                                              ; preds = %167
  %173 = load i32, i32* %11, align 4
  %174 = call i32 (i8*, ...) @printf(i8* getelementptr inbounds ([4 x i8], [4 x i8]* @.str, i64 0, i64 0), i32 %173)
  store i32 1, i32* %5, align 4
  br label %175

175:                                              ; preds = %193, %172
  %176 = load i32, i32* %5, align 4
  %177 = load i32, i32* %9, align 4
  %178 = icmp sle i32 %176, %177
  br i1 %178, label %179, label %196

179:                                              ; preds = %175
  %180 = load i32, i32* %5, align 4
  %181 = sext i32 %180 to i64
  %182 = getelementptr inbounds [1000 x i32], [1000 x i32]* %4, i64 0, i64 %181
  %183 = load i32, i32* %182, align 4
  %184 = load i32, i32* %11, align 4
  %185 = icmp eq i32 %183, %184
  br i1 %185, label %186, label %192

186:                                              ; preds = %179
  %187 = load i32, i32* %5, align 4
  %188 = sext i32 %187 to i64
  %189 = getelementptr inbounds [1000 x [1000 x i8]], [1000 x [1000 x i8]]* %1, i64 0, i64 %188
  %190 = getelementptr inbounds [1000 x i8], [1000 x i8]* %189, i64 0, i64 0
  %191 = call i32 @puts(i8* %190)
  br label %192

192:                                              ; preds = %186, %179
  br label %193

193:                                              ; preds = %192
  %194 = load i32, i32* %5, align 4
  %195 = add nsw i32 %194, 1
  store i32 %195, i32* %5, align 4
  br label %175

196:                                              ; preds = %175
  br label %197

197:                                              ; preds = %196, %170
  ret void
}